; Function Attrs: mustprogress nofree norecurse nosync nounwind willreturn memory(argmem: write) uwtable
define void @LzmaDec_InitDicAndState(ptr nocapture noundef writeonly %0, i32 noundef %1, i32 noundef %2) local_unnamed_addr #0 {
  %4 = getelementptr inbounds i8, ptr %0, i64 96
  store i32 1, ptr %4, align 8
  %5 = getelementptr inbounds i8, ptr %0, i64 92
  store i32 0, ptr %5, align 4
  %6 = getelementptr inbounds i8, ptr %0, i64 108
  store i32 0, ptr %6, align 4
  %.not = icmp eq i32 %1, 0
  br i1 %.not, label %11, label %7

7:                                                ; preds = %3
  %8 = getelementptr inbounds i8, ptr %0, i64 64
  store i32 0, ptr %8, align 8
  %9 = getelementptr inbounds i8, ptr %0, i64 68
  store i32 0, ptr %9, align 4
  %10 = getelementptr inbounds i8, ptr %0, i64 100
  store i32 1, ptr %10, align 4
  br label %11

11:                                               ; preds = %7, %3
  %.not8 = icmp eq i32 %2, 0
  br i1 %.not8, label %14, label %12

12:                                               ; preds = %11
  %13 = getelementptr inbounds i8, ptr %0, i64 100
  store i32 1, ptr %13, align 4
  br label %14

14:                                               ; preds = %12, %11
  ret void
}